target datalayout = "e-m:e-p270:32:32-p271:32:32-p272:64:64-i64:64-i128:128-f80:128-n8:16:32:64-S128"
target triple = "x86_64-pc-linux-gnu"

@offset = internal global [5 x i32] zeroinitializer, align 16
@bit_grid = internal global ptr null, align 8

; Function Attrs: nounwind uwtable
define internal zeroext i1 @_test_box_in_grid(i32 noundef %0, i32 noundef %1, ptr noundef %2, ptr noundef %3, i32 noundef %4) #0 {
  %6 = alloca i1, align 1
  %7 = alloca i32, align 4
  %8 = alloca i32, align 4
  %9 = alloca ptr, align 8
  %10 = alloca ptr, align 8
  %11 = alloca i32, align 4
  %12 = alloca i32, align 4
  %13 = alloca i32, align 4
  %14 = alloca i32, align 4
  store i32 %0, ptr %7, align 4
  store i32 %1, ptr %8, align 4
  store ptr %2, ptr %9, align 8
  store ptr %3, ptr %10, align 8
  store i32 %4, ptr %11, align 4
  call void @llvm.lifetime.start.p0(i64 4, ptr %12) #13
  call void @llvm.lifetime.start.p0(i64 4, ptr %13) #13
  %15 = load i32, ptr %8, align 4
  store i32 %15, ptr %13, align 4
  %16 = load ptr, ptr %9, align 8
  %17 = load i32, ptr %7, align 4
  %18 = sext i32 %17 to i64
  %19 = getelementptr inbounds i32, ptr %16, i64 %18
  %20 = load i32, ptr %19, align 4
  store i32 %20, ptr %12, align 4
  br label %21

21:                                               ; preds = %61, %5
  %22 = load i32, ptr %12, align 4
  %23 = load ptr, ptr %10, align 8
  %24 = load i32, ptr %7, align 4
  %25 = sext i32 %24 to i64
  %26 = getelementptr inbounds i32, ptr %23, i64 %25
  %27 = load i32, ptr %26, align 4
  %28 = icmp sle i32 %22, %27
  br i1 %28, label %29, label %64

29:                                               ; preds = %21
  %30 = load i32, ptr %13, align 4
  %31 = load i32, ptr %12, align 4
  %32 = load i32, ptr %7, align 4
  %33 = sext i32 %32 to i64
  %34 = getelementptr inbounds [5 x i32], ptr @offset, i64 0, i64 %33
  %35 = load i32, ptr %34, align 4
  %36 = mul nsw i32 %31, %35
  %37 = add nsw i32 %30, %36
  store i32 %37, ptr %8, align 4
  %38 = load i32, ptr %7, align 4
  %39 = load i32, ptr %11, align 4
  %40 = sub nsw i32 %39, 1
  %41 = icmp eq i32 %38, %40
  br i1 %41, label %42, label %50

42:                                               ; preds = %29
  %43 = load ptr, ptr @bit_grid, align 8
  %44 = load i32, ptr %8, align 4
  %45 = sext i32 %44 to i64
  %46 = call i32 @slurm_bit_test(ptr noundef %43, i64 noundef %45)
  %47 = icmp ne i32 %46, 0
  br i1 %47, label %49, label %48

48:                                               ; preds = %42
  store i1 false, ptr %6, align 1
  store i32 1, ptr %14, align 4
  br label %65

49:                                               ; preds = %42
  br label %60

50:                                               ; preds = %29
  %51 = load i32, ptr %7, align 4
  %52 = add nsw i32 %51, 1
  %53 = load i32, ptr %8, align 4
  %54 = load ptr, ptr %9, align 8
  %55 = load ptr, ptr %10, align 8
  %56 = load i32, ptr %11, align 4
  %57 = call zeroext i1 @_test_box_in_grid(i32 noundef %52, i32 noundef %53, ptr noundef %54, ptr noundef %55, i32 noundef %56)
  br i1 %57, label %59, label %58

58:                                               ; preds = %50
  store i1 false, ptr %6, align 1
  store i32 1, ptr %14, align 4
  br label %65

59:                                               ; preds = %50
  br label %60

60:                                               ; preds = %59, %49
  br label %61

61:                                               ; preds = %60
  %62 = load i32, ptr %12, align 4
  %63 = add nsw i32 %62, 1
  store i32 %63, ptr %12, align 4
  br label %21, !llvm.loop !81

64:                                               ; preds = %21
  store i1 true, ptr %6, align 1
  store i32 1, ptr %14, align 4
  br label %65

65:                                               ; preds = %64, %58, %48
  call void @llvm.lifetime.end.p0(i64 4, ptr %13) #13
  call void @llvm.lifetime.end.p0(i64 4, ptr %12) #13
  %66 = load i1, ptr %6, align 1
  ret i1 %66
}