; Function Attrs: nounwind uwtable
define internal fastcc noundef zeroext i1 @_test_box_in_grid(i32 noundef %0, i32 noundef %1, i32 noundef range(i32 2, -2147483648) %2) unnamed_addr #0 {
  %4 = sext i32 %0 to i64
  %5 = getelementptr inbounds i32, ptr @grid_start, i64 %4
  %6 = load i32, ptr %5, align 4
  %7 = getelementptr inbounds i32, ptr @grid_end, i64 %4
  %8 = load i32, ptr %7, align 4
  %.not1 = icmp sgt i32 %6, %8
  br i1 %.not1, label %._crit_edge, label %.lr.ph

.lr.ph:                                           ; preds = %3
  %9 = getelementptr inbounds [5 x i32], ptr @offset, i64 0, i64 %4
  %10 = add nsw i32 %2, -1
  %11 = icmp eq i32 %0, %10
  %12 = add nsw i32 %0, 1
  %13 = load i32, ptr %9, align 4
  %14 = mul nsw i32 %13, %6
  %15 = add nsw i32 %14, %1
  br i1 %11, label %.lr.ph.split.us, label %.lr.ph.split

.lr.ph.split.us:                                  ; preds = %.lr.ph
  %16 = load ptr, ptr @bit_grid, align 8
  %17 = sext i32 %15 to i64
  %18 = tail call i32 @slurm_bit_test(ptr noundef %16, i64 noundef %17) #22
  %.not20.us12 = icmp eq i32 %18, 0
  br i1 %.not20.us12, label %._crit_edge, label %.lr.ph14

19:                                               ; preds = %.lr.ph14
  %20 = add nsw i32 %.0182.us13, 1
  %21 = load i32, ptr %9, align 4
  %22 = mul nsw i32 %21, %20
  %23 = add nsw i32 %22, %1
  %24 = load ptr, ptr @bit_grid, align 8
  %25 = sext i32 %23 to i64
  %26 = tail call i32 @slurm_bit_test(ptr noundef %24, i64 noundef %25) #22
  %.not20.us = icmp eq i32 %26, 0
  br i1 %.not20.us, label %._crit_edge, label %.lr.ph14, !llvm.loop !79

.lr.ph14:                                         ; preds = %.lr.ph.split.us, %19
  %.0182.us13 = phi i32 [ %20, %19 ], [ %6, %.lr.ph.split.us ]
  %27 = load i32, ptr %7, align 4
  %.not.us.not.not.not = icmp sge i32 %.0182.us13, %27
  br i1 %.not.us.not.not.not, label %._crit_edge, label %19, !llvm.loop !79

.lr.ph.split:                                     ; preds = %.lr.ph
  %28 = tail call fastcc zeroext i1 @_test_box_in_grid(i32 noundef %12, i32 noundef %15, i32 noundef %2)
  br i1 %28, label %.lr.ph10, label %._crit_edge

29:                                               ; preds = %.lr.ph10
  %30 = add nsw i32 %.01829, 1
  %31 = load i32, ptr %9, align 4
  %32 = mul nsw i32 %31, %30
  %33 = add nsw i32 %32, %1
  %34 = tail call fastcc zeroext i1 @_test_box_in_grid(i32 noundef %12, i32 noundef %33, i32 noundef %2)
  br i1 %34, label %.lr.ph10, label %._crit_edge, !llvm.loop !79

.lr.ph10:                                         ; preds = %.lr.ph.split, %29
  %.01829 = phi i32 [ %30, %29 ], [ %6, %.lr.ph.split ]
  %35 = load i32, ptr %7, align 4
  %.not.not.not.not = icmp sge i32 %.01829, %35
  br i1 %.not.not.not.not, label %._crit_edge, label %29, !llvm.loop !79

._crit_edge:                                      ; preds = %29, %.lr.ph10, %19, %.lr.ph14, %.lr.ph.split.us, %.lr.ph.split, %3
  %.not.lcssa = phi i1 [ true, %3 ], [ false, %.lr.ph.split ], [ false, %.lr.ph.split.us ], [ %.not.us.not.not.not, %.lr.ph14 ], [ %.not.us.not.not.not, %19 ], [ %.not.not.not.not, %.lr.ph10 ], [ %.not.not.not.not, %29 ]
  ret i1 %.not.lcssa
}